
IHM.elf:     file format elf32-avr

Sections:
Idx Name          Size      VMA       LMA       File off  Algn
  0 .data         000001da  00800100  00000758  000007ec  2**0
                  CONTENTS, ALLOC, LOAD, DATA
  1 .text         00000758  00000000  00000000  00000094  2**1
                  CONTENTS, ALLOC, LOAD, READONLY, CODE
  2 .bss          00000028  008002da  008002da  000009c6  2**0
                  ALLOC
  3 .comment      00000030  00000000  00000000  000009c6  2**0
                  CONTENTS, READONLY
  4 .note.gnu.avr.deviceinfo 0000003c  00000000  00000000  000009f8  2**2
                  CONTENTS, READONLY
  5 .debug_aranges 00000110  00000000  00000000  00000a34  2**0
                  CONTENTS, READONLY, DEBUGGING
  6 .debug_info   000019ac  00000000  00000000  00000b44  2**0
                  CONTENTS, READONLY, DEBUGGING
  7 .debug_abbrev 00000a6e  00000000  00000000  000024f0  2**0
                  CONTENTS, READONLY, DEBUGGING
  8 .debug_line   00000dce  00000000  00000000  00002f5e  2**0
                  CONTENTS, READONLY, DEBUGGING
  9 .debug_frame  000002d8  00000000  00000000  00003d2c  2**2
                  CONTENTS, READONLY, DEBUGGING
 10 .debug_str    0000057d  00000000  00000000  00004004  2**0
                  CONTENTS, READONLY, DEBUGGING
 11 .debug_loc    00000bc6  00000000  00000000  00004581  2**0
                  CONTENTS, READONLY, DEBUGGING
 12 .debug_ranges 000000e0  00000000  00000000  00005147  2**0
                  CONTENTS, READONLY, DEBUGGING

Disassembly of section .text:

00000000 <__vectors>:
   0:	0c 94 34 00 	jmp	0x68	; 0x68 <__ctors_end>
   4:	0c 94 5f 01 	jmp	0x2be	; 0x2be <__vector_1>
   8:	0c 94 74 01 	jmp	0x2e8	; 0x2e8 <__vector_2>
   c:	0c 94 51 00 	jmp	0xa2	; 0xa2 <__bad_interrupt>
  10:	0c 94 51 00 	jmp	0xa2	; 0xa2 <__bad_interrupt>
  14:	0c 94 51 00 	jmp	0xa2	; 0xa2 <__bad_interrupt>
  18:	0c 94 51 00 	jmp	0xa2	; 0xa2 <__bad_interrupt>
  1c:	0c 94 51 00 	jmp	0xa2	; 0xa2 <__bad_interrupt>
  20:	0c 94 51 00 	jmp	0xa2	; 0xa2 <__bad_interrupt>
  24:	0c 94 51 00 	jmp	0xa2	; 0xa2 <__bad_interrupt>
  28:	0c 94 51 00 	jmp	0xa2	; 0xa2 <__bad_interrupt>
  2c:	0c 94 51 00 	jmp	0xa2	; 0xa2 <__bad_interrupt>
  30:	0c 94 51 00 	jmp	0xa2	; 0xa2 <__bad_interrupt>
  34:	0c 94 51 00 	jmp	0xa2	; 0xa2 <__bad_interrupt>
  38:	0c 94 51 00 	jmp	0xa2	; 0xa2 <__bad_interrupt>
  3c:	0c 94 51 00 	jmp	0xa2	; 0xa2 <__bad_interrupt>
  40:	0c 94 83 01 	jmp	0x306	; 0x306 <__vector_16>
  44:	0c 94 51 00 	jmp	0xa2	; 0xa2 <__bad_interrupt>
  48:	0c 94 51 00 	jmp	0xa2	; 0xa2 <__bad_interrupt>
  4c:	0c 94 51 00 	jmp	0xa2	; 0xa2 <__bad_interrupt>
  50:	0c 94 51 00 	jmp	0xa2	; 0xa2 <__bad_interrupt>
  54:	0c 94 51 00 	jmp	0xa2	; 0xa2 <__bad_interrupt>
  58:	0c 94 51 00 	jmp	0xa2	; 0xa2 <__bad_interrupt>
  5c:	0c 94 51 00 	jmp	0xa2	; 0xa2 <__bad_interrupt>
  60:	0c 94 51 00 	jmp	0xa2	; 0xa2 <__bad_interrupt>
  64:	0c 94 51 00 	jmp	0xa2	; 0xa2 <__bad_interrupt>

00000068 <__ctors_end>:
  68:	11 24       	eor	r1, r1
  6a:	1f be       	out	0x3f, r1	; 63
  6c:	cf ef       	ldi	r28, 0xFF	; 255
  6e:	d8 e0       	ldi	r29, 0x08	; 8
  70:	de bf       	out	0x3e, r29	; 62
  72:	cd bf       	out	0x3d, r28	; 61

00000074 <__do_copy_data>:
  74:	12 e0       	ldi	r17, 0x02	; 2
  76:	a0 e0       	ldi	r26, 0x00	; 0
  78:	b1 e0       	ldi	r27, 0x01	; 1
  7a:	e8 e5       	ldi	r30, 0x58	; 88
  7c:	f7 e0       	ldi	r31, 0x07	; 7
  7e:	02 c0       	rjmp	.+4      	; 0x84 <__do_copy_data+0x10>
  80:	05 90       	lpm	r0, Z+
  82:	0d 92       	st	X+, r0
  84:	aa 3d       	cpi	r26, 0xDA	; 218
  86:	b1 07       	cpc	r27, r17
  88:	d9 f7       	brne	.-10     	; 0x80 <__do_copy_data+0xc>

0000008a <__do_clear_bss>:
  8a:	23 e0       	ldi	r18, 0x03	; 3
  8c:	aa ed       	ldi	r26, 0xDA	; 218
  8e:	b2 e0       	ldi	r27, 0x02	; 2
  90:	01 c0       	rjmp	.+2      	; 0x94 <.do_clear_bss_start>

00000092 <.do_clear_bss_loop>:
  92:	1d 92       	st	X+, r1

00000094 <.do_clear_bss_start>:
  94:	a2 30       	cpi	r26, 0x02	; 2
  96:	b2 07       	cpc	r27, r18
  98:	e1 f7       	brne	.-8      	; 0x92 <.do_clear_bss_loop>
  9a:	0e 94 25 03 	call	0x64a	; 0x64a <main>
  9e:	0c 94 aa 03 	jmp	0x754	; 0x754 <_exit>

000000a2 <__bad_interrupt>:
  a2:	0c 94 00 00 	jmp	0	; 0x0 <__vectors>

000000a6 <I2C_Init>:

 * description :This function is used to initialize the I2C module
------------------------------------------------------------------------------------*/
void I2C_Init()
{
    TWSR=0x00; //set presca1er bits to zero
  a6:	10 92 b9 00 	sts	0x00B9, r1	; 0x8000b9 <__DATA_REGION_ORIGIN__+0x59>
    TWBR=0x46; //SCL frequency is 50K for 16Mhz
  aa:	86 e4       	ldi	r24, 0x46	; 70
  ac:	80 93 b8 00 	sts	0x00B8, r24	; 0x8000b8 <__DATA_REGION_ORIGIN__+0x58>
    TWCR=0x04; //enab1e TWI module
  b0:	84 e0       	ldi	r24, 0x04	; 4
  b2:	80 93 bc 00 	sts	0x00BC, r24	; 0x8000bc <__DATA_REGION_ORIGIN__+0x5c>
  b6:	08 95       	ret

000000b8 <I2C_Start>:
                      ____|         |____________

 ***************************************************************************************************/
void I2C_Start()
{
    TWCR = ((1<<TWINT) | (1<<TWSTA) | (1<<TWEN));
  b8:	84 ea       	ldi	r24, 0xA4	; 164
  ba:	80 93 bc 00 	sts	0x00BC, r24	; 0x8000bc <__DATA_REGION_ORIGIN__+0x5c>
    while (!(TWCR & (1<<TWINT)));
  be:	ec eb       	ldi	r30, 0xBC	; 188
  c0:	f0 e0       	ldi	r31, 0x00	; 0
  c2:	80 81       	ld	r24, Z
  c4:	88 23       	and	r24, r24
  c6:	ec f7       	brge	.-6      	; 0xc2 <I2C_Start+0xa>
}
  c8:	08 95       	ret

000000ca <I2C_Stop>:

 ***************************************************************************************************/

void I2C_Stop(void)
{
    TWCR = ((1<< TWINT) | (1<<TWEN) | (1<<TWSTO));
  ca:	84 e9       	ldi	r24, 0x94	; 148
  cc:	80 93 bc 00 	sts	0x00BC, r24	; 0x8000bc <__DATA_REGION_ORIGIN__+0x5c>
	#else
		//round up by default
		__ticks_dc = (uint32_t)(ceil(fabs(__tmp)));
	#endif

	__builtin_avr_delay_cycles(__ticks_dc);
  d0:	8f e8       	ldi	r24, 0x8F	; 143
  d2:	91 e0       	ldi	r25, 0x01	; 1
  d4:	01 97       	sbiw	r24, 0x01	; 1
  d6:	f1 f7       	brne	.-4      	; 0xd4 <I2C_Stop+0xa>
  d8:	00 c0       	rjmp	.+0      	; 0xda <I2C_Stop+0x10>
  da:	00 00       	nop
  dc:	08 95       	ret

000000de <I2C_Write>:


 ***************************************************************************************************/
void I2C_Write(uint8_t v_i2cData_u8)
{
    TWDR = v_i2cData_u8 ;
  de:	80 93 bb 00 	sts	0x00BB, r24	; 0x8000bb <__DATA_REGION_ORIGIN__+0x5b>
    TWCR = ((1<< TWINT) | (1<<TWEN));
  e2:	84 e8       	ldi	r24, 0x84	; 132
  e4:	80 93 bc 00 	sts	0x00BC, r24	; 0x8000bc <__DATA_REGION_ORIGIN__+0x5c>
    while (!(TWCR & (1 <<TWINT)));
  e8:	ec eb       	ldi	r30, 0xBC	; 188
  ea:	f0 e0       	ldi	r31, 0x00	; 0
  ec:	80 81       	ld	r24, Z
  ee:	88 23       	and	r24, r24
  f0:	ec f7       	brge	.-6      	; 0xec <I2C_Write+0xe>
}
  f2:	08 95       	ret

000000f4 <I2C_Read>:


***************************************************************************************************/
uint8_t I2C_Read(uint8_t v_ackOption_u8)
{
    TWCR = ((1<< TWINT) | (1<<TWEN) | (v_ackOption_u8<<TWEA));
  f4:	20 e4       	ldi	r18, 0x40	; 64
  f6:	82 9f       	mul	r24, r18
  f8:	c0 01       	movw	r24, r0
  fa:	11 24       	eor	r1, r1
  fc:	84 68       	ori	r24, 0x84	; 132
  fe:	80 93 bc 00 	sts	0x00BC, r24	; 0x8000bc <__DATA_REGION_ORIGIN__+0x5c>
    while ( !(TWCR & (1 <<TWINT)));
 102:	ec eb       	ldi	r30, 0xBC	; 188
 104:	f0 e0       	ldi	r31, 0x00	; 0
 106:	80 81       	ld	r24, Z
 108:	88 23       	and	r24, r24
 10a:	ec f7       	brge	.-6      	; 0x106 <I2C_Read+0x12>
    return TWDR;
 10c:	80 91 bb 00 	lds	r24, 0x00BB	; 0x8000bb <__DATA_REGION_ORIGIN__+0x5b>
}
 110:	08 95       	ret

00000112 <LCD_put_inst>:
	}
	str[cont]=(char)((data%10)+48);//1
	cont++;
	str[cont]=0;
	putstr(str);
}
 112:	95 e8       	ldi	r25, 0x85	; 133
 114:	9a 95       	dec	r25
 116:	f1 f7       	brne	.-4      	; 0x114 <LCD_put_inst+0x2>
 118:	00 00       	nop
 11a:	5e 98       	cbi	0x0b, 6	; 11
 11c:	84 ff       	sbrs	r24, 4
 11e:	02 c0       	rjmp	.+4      	; 0x124 <LCD_put_inst+0x12>
 120:	58 9a       	sbi	0x0b, 0	; 11
 122:	01 c0       	rjmp	.+2      	; 0x126 <LCD_put_inst+0x14>
 124:	58 98       	cbi	0x0b, 0	; 11
 126:	85 ff       	sbrs	r24, 5
 128:	02 c0       	rjmp	.+4      	; 0x12e <LCD_put_inst+0x1c>
 12a:	59 9a       	sbi	0x0b, 1	; 11
 12c:	01 c0       	rjmp	.+2      	; 0x130 <LCD_put_inst+0x1e>
 12e:	59 98       	cbi	0x0b, 1	; 11
 130:	86 ff       	sbrs	r24, 6
 132:	02 c0       	rjmp	.+4      	; 0x138 <LCD_put_inst+0x26>
 134:	5d 9a       	sbi	0x0b, 5	; 11
 136:	01 c0       	rjmp	.+2      	; 0x13a <LCD_put_inst+0x28>
 138:	5d 98       	cbi	0x0b, 5	; 11
 13a:	88 23       	and	r24, r24
 13c:	14 f4       	brge	.+4      	; 0x142 <LCD_put_inst+0x30>
 13e:	5c 9a       	sbi	0x0b, 4	; 11
 140:	01 c0       	rjmp	.+2      	; 0x144 <LCD_put_inst+0x32>
 142:	5c 98       	cbi	0x0b, 4	; 11
 144:	5f 9a       	sbi	0x0b, 7	; 11
 146:	9a e1       	ldi	r25, 0x1A	; 26
 148:	9a 95       	dec	r25
 14a:	f1 f7       	brne	.-4      	; 0x148 <LCD_put_inst+0x36>
 14c:	00 c0       	rjmp	.+0      	; 0x14e <LCD_put_inst+0x3c>
 14e:	5f 98       	cbi	0x0b, 7	; 11
 150:	80 ff       	sbrs	r24, 0
 152:	02 c0       	rjmp	.+4      	; 0x158 <LCD_put_inst+0x46>
 154:	58 9a       	sbi	0x0b, 0	; 11
 156:	01 c0       	rjmp	.+2      	; 0x15a <LCD_put_inst+0x48>
 158:	58 98       	cbi	0x0b, 0	; 11
 15a:	81 ff       	sbrs	r24, 1
 15c:	02 c0       	rjmp	.+4      	; 0x162 <LCD_put_inst+0x50>
 15e:	59 9a       	sbi	0x0b, 1	; 11
 160:	01 c0       	rjmp	.+2      	; 0x164 <LCD_put_inst+0x52>
 162:	59 98       	cbi	0x0b, 1	; 11
 164:	82 ff       	sbrs	r24, 2
 166:	02 c0       	rjmp	.+4      	; 0x16c <LCD_put_inst+0x5a>
 168:	5d 9a       	sbi	0x0b, 5	; 11
 16a:	01 c0       	rjmp	.+2      	; 0x16e <LCD_put_inst+0x5c>
 16c:	5d 98       	cbi	0x0b, 5	; 11
 16e:	83 ff       	sbrs	r24, 3
 170:	02 c0       	rjmp	.+4      	; 0x176 <LCD_put_inst+0x64>
 172:	5c 9a       	sbi	0x0b, 4	; 11
 174:	01 c0       	rjmp	.+2      	; 0x178 <LCD_put_inst+0x66>
 176:	5c 98       	cbi	0x0b, 4	; 11
 178:	5f 9a       	sbi	0x0b, 7	; 11
 17a:	8a e1       	ldi	r24, 0x1A	; 26
 17c:	8a 95       	dec	r24
 17e:	f1 f7       	brne	.-4      	; 0x17c <LCD_put_inst+0x6a>
 180:	00 c0       	rjmp	.+0      	; 0x182 <LCD_put_inst+0x70>
 182:	5f 98       	cbi	0x0b, 7	; 11
 184:	08 95       	ret

00000186 <LCD_putchar>:
 186:	95 e8       	ldi	r25, 0x85	; 133
 188:	9a 95       	dec	r25
 18a:	f1 f7       	brne	.-4      	; 0x188 <LCD_putchar+0x2>
 18c:	00 00       	nop
 18e:	5e 9a       	sbi	0x0b, 6	; 11
 190:	84 ff       	sbrs	r24, 4
 192:	02 c0       	rjmp	.+4      	; 0x198 <LCD_putchar+0x12>
 194:	58 9a       	sbi	0x0b, 0	; 11
 196:	01 c0       	rjmp	.+2      	; 0x19a <LCD_putchar+0x14>
 198:	58 98       	cbi	0x0b, 0	; 11
 19a:	85 ff       	sbrs	r24, 5
 19c:	02 c0       	rjmp	.+4      	; 0x1a2 <LCD_putchar+0x1c>
 19e:	59 9a       	sbi	0x0b, 1	; 11
 1a0:	01 c0       	rjmp	.+2      	; 0x1a4 <LCD_putchar+0x1e>
 1a2:	59 98       	cbi	0x0b, 1	; 11
 1a4:	86 ff       	sbrs	r24, 6
 1a6:	02 c0       	rjmp	.+4      	; 0x1ac <LCD_putchar+0x26>
 1a8:	5d 9a       	sbi	0x0b, 5	; 11
 1aa:	01 c0       	rjmp	.+2      	; 0x1ae <LCD_putchar+0x28>
 1ac:	5d 98       	cbi	0x0b, 5	; 11
 1ae:	88 23       	and	r24, r24
 1b0:	14 f4       	brge	.+4      	; 0x1b6 <LCD_putchar+0x30>
 1b2:	5c 9a       	sbi	0x0b, 4	; 11
 1b4:	01 c0       	rjmp	.+2      	; 0x1b8 <LCD_putchar+0x32>
 1b6:	5c 98       	cbi	0x0b, 4	; 11
 1b8:	5f 9a       	sbi	0x0b, 7	; 11
 1ba:	9a e1       	ldi	r25, 0x1A	; 26
 1bc:	9a 95       	dec	r25
 1be:	f1 f7       	brne	.-4      	; 0x1bc <LCD_putchar+0x36>
 1c0:	00 c0       	rjmp	.+0      	; 0x1c2 <LCD_putchar+0x3c>
 1c2:	5f 98       	cbi	0x0b, 7	; 11
 1c4:	80 ff       	sbrs	r24, 0
 1c6:	02 c0       	rjmp	.+4      	; 0x1cc <LCD_putchar+0x46>
 1c8:	58 9a       	sbi	0x0b, 0	; 11
 1ca:	01 c0       	rjmp	.+2      	; 0x1ce <LCD_putchar+0x48>
 1cc:	58 98       	cbi	0x0b, 0	; 11
 1ce:	81 ff       	sbrs	r24, 1
 1d0:	02 c0       	rjmp	.+4      	; 0x1d6 <LCD_putchar+0x50>
 1d2:	59 9a       	sbi	0x0b, 1	; 11
 1d4:	01 c0       	rjmp	.+2      	; 0x1d8 <LCD_putchar+0x52>
 1d6:	59 98       	cbi	0x0b, 1	; 11
 1d8:	82 ff       	sbrs	r24, 2
 1da:	02 c0       	rjmp	.+4      	; 0x1e0 <LCD_putchar+0x5a>
 1dc:	5d 9a       	sbi	0x0b, 5	; 11
 1de:	01 c0       	rjmp	.+2      	; 0x1e2 <LCD_putchar+0x5c>
 1e0:	5d 98       	cbi	0x0b, 5	; 11
 1e2:	83 ff       	sbrs	r24, 3
 1e4:	02 c0       	rjmp	.+4      	; 0x1ea <LCD_putchar+0x64>
 1e6:	5c 9a       	sbi	0x0b, 4	; 11
 1e8:	01 c0       	rjmp	.+2      	; 0x1ec <LCD_putchar+0x66>
 1ea:	5c 98       	cbi	0x0b, 4	; 11
 1ec:	5f 9a       	sbi	0x0b, 7	; 11
 1ee:	8a e1       	ldi	r24, 0x1A	; 26
 1f0:	8a 95       	dec	r24
 1f2:	f1 f7       	brne	.-4      	; 0x1f0 <LCD_putchar+0x6a>
 1f4:	00 c0       	rjmp	.+0      	; 0x1f6 <LCD_putchar+0x70>
 1f6:	5f 98       	cbi	0x0b, 7	; 11
 1f8:	08 95       	ret

000001fa <putstr>:
 1fa:	0f 93       	push	r16
 1fc:	1f 93       	push	r17
 1fe:	cf 93       	push	r28
 200:	df 93       	push	r29
 202:	fc 01       	movw	r30, r24
 204:	80 81       	ld	r24, Z
 206:	88 23       	and	r24, r24
 208:	69 f0       	breq	.+26     	; 0x224 <putstr+0x2a>
 20a:	8f 01       	movw	r16, r30
 20c:	ef 01       	movw	r28, r30
 20e:	21 96       	adiw	r28, 0x01	; 1
 210:	07 51       	subi	r16, 0x17	; 23
 212:	1c 4f       	sbci	r17, 0xFC	; 252
 214:	0e 94 c3 00 	call	0x186	; 0x186 <LCD_putchar>
 218:	89 91       	ld	r24, Y+
 21a:	88 23       	and	r24, r24
 21c:	19 f0       	breq	.+6      	; 0x224 <putstr+0x2a>
 21e:	c0 17       	cp	r28, r16
 220:	d1 07       	cpc	r29, r17
 222:	c1 f7       	brne	.-16     	; 0x214 <putstr+0x1a>
 224:	df 91       	pop	r29
 226:	cf 91       	pop	r28
 228:	1f 91       	pop	r17
 22a:	0f 91       	pop	r16
 22c:	08 95       	ret

0000022e <LCD_init>:

//////////////////////////////////////////////////////////////////////////////////////////////////
//                               L C D   i n i t
//////////////////////////////////////////////////////////////////////////////////////////////////
void LCD_init()
{
 22e:	ef 92       	push	r14
 230:	ff 92       	push	r15
 232:	0f 93       	push	r16
 234:	1f 93       	push	r17
 236:	cf 93       	push	r28
 238:	df 93       	push	r29
 23a:	cd b7       	in	r28, 0x3d	; 61
 23c:	de b7       	in	r29, 0x3e	; 62
 23e:	27 97       	sbiw	r28, 0x07	; 7
 240:	0f b6       	in	r0, 0x3f	; 63
 242:	f8 94       	cli
 244:	de bf       	out	0x3e, r29	; 62
 246:	0f be       	out	0x3f, r0	; 63
 248:	cd bf       	out	0x3d, r28	; 61
	unsigned int i;
	char initdata[] = {0x33, 0x32, 0x28, 0x0C, 0x01, 0x06, 0x80};
 24a:	87 e0       	ldi	r24, 0x07	; 7
 24c:	e7 ee       	ldi	r30, 0xE7	; 231
 24e:	f1 e0       	ldi	r31, 0x01	; 1
 250:	de 01       	movw	r26, r28
 252:	11 96       	adiw	r26, 0x01	; 1
 254:	01 90       	ld	r0, Z+
 256:	0d 92       	st	X+, r0
 258:	8a 95       	dec	r24
 25a:	e1 f7       	brne	.-8      	; 0x254 <LCD_init+0x26>
	#else
		//round up by default
		__ticks_dc = (uint32_t)(ceil(fabs(__tmp)));
	#endif

	__builtin_avr_delay_cycles(__ticks_dc);
 25c:	8f ef       	ldi	r24, 0xFF	; 255
 25e:	9c e7       	ldi	r25, 0x7C	; 124
 260:	01 97       	sbiw	r24, 0x01	; 1
 262:	f1 f7       	brne	.-4      	; 0x260 <LCD_init+0x32>
 264:	00 c0       	rjmp	.+0      	; 0x266 <LCD_init+0x38>
 266:	00 00       	nop

	_delay_ms(16);	

	LCD_DATA_DIRECTION4;
 268:	50 9a       	sbi	0x0a, 0	; 10
	LCD_DATA_DIRECTION5;
 26a:	51 9a       	sbi	0x0a, 1	; 10
	LCD_DATA_DIRECTION6;
 26c:	55 9a       	sbi	0x0a, 5	; 10
	LCD_DATA_DIRECTION7;
 26e:	54 9a       	sbi	0x0a, 4	; 10
	LCD_E_DIRECTION;
 270:	57 9a       	sbi	0x0a, 7	; 10
	LCD_RS_DIRECTION;
 272:	56 9a       	sbi	0x0a, 6	; 10
	LCD_E_H;
 274:	5f 9a       	sbi	0x0b, 7	; 11
	LCD_RS_L;   
 276:	5e 98       	cbi	0x0b, 6	; 11
	LCD_E_L;
 278:	5f 98       	cbi	0x0b, 7	; 11
 27a:	8e 01       	movw	r16, r28
 27c:	0f 5f       	subi	r16, 0xFF	; 255
 27e:	1f 4f       	sbci	r17, 0xFF	; 255
 280:	7e 01       	movw	r14, r28
 282:	98 e0       	ldi	r25, 0x08	; 8
 284:	e9 0e       	add	r14, r25
 286:	f1 1c       	adc	r15, r1
	
	for (i = 0; i < sizeof initdata; ++i)
	{
		LCD_put_inst(initdata[i]);
 288:	f8 01       	movw	r30, r16
 28a:	81 91       	ld	r24, Z+
 28c:	8f 01       	movw	r16, r30
 28e:	0e 94 89 00 	call	0x112	; 0x112 <LCD_put_inst>
 292:	8f ef       	ldi	r24, 0xFF	; 255
 294:	9c e7       	ldi	r25, 0x7C	; 124
 296:	01 97       	sbiw	r24, 0x01	; 1
 298:	f1 f7       	brne	.-4      	; 0x296 <LCD_init+0x68>
 29a:	00 c0       	rjmp	.+0      	; 0x29c <LCD_init+0x6e>
 29c:	00 00       	nop
	LCD_RS_DIRECTION;
	LCD_E_H;
	LCD_RS_L;   
	LCD_E_L;
	
	for (i = 0; i < sizeof initdata; ++i)
 29e:	0e 15       	cp	r16, r14
 2a0:	1f 05       	cpc	r17, r15
 2a2:	91 f7       	brne	.-28     	; 0x288 <LCD_init+0x5a>
	{
		LCD_put_inst(initdata[i]);
		_delay_ms(16);
	}
 2a4:	27 96       	adiw	r28, 0x07	; 7
 2a6:	0f b6       	in	r0, 0x3f	; 63
 2a8:	f8 94       	cli
 2aa:	de bf       	out	0x3e, r29	; 62
 2ac:	0f be       	out	0x3f, r0	; 63
 2ae:	cd bf       	out	0x3d, r28	; 61
 2b0:	df 91       	pop	r29
 2b2:	cf 91       	pop	r28
 2b4:	1f 91       	pop	r17
 2b6:	0f 91       	pop	r16
 2b8:	ff 90       	pop	r15
 2ba:	ef 90       	pop	r14
 2bc:	08 95       	ret

000002be <__vector_1>:
unsigned int tempo_1s;
unsigned int tempo_10ms;
unsigned int y;

ISR(INT0_vect)
{
 2be:	1f 92       	push	r1
 2c0:	0f 92       	push	r0
 2c2:	0f b6       	in	r0, 0x3f	; 63
 2c4:	0f 92       	push	r0
 2c6:	11 24       	eor	r1, r1
 2c8:	8f 93       	push	r24
	if((PINB&0b00000001)==0)
 2ca:	18 99       	sbic	0x03, 0	; 3
 2cc:	04 c0       	rjmp	.+8      	; 0x2d6 <__vector_1+0x18>
	{
		encoder_incrementa=1;
 2ce:	81 e0       	ldi	r24, 0x01	; 1
 2d0:	80 93 da 02 	sts	0x02DA, r24	; 0x8002da <__data_end>
 2d4:	03 c0       	rjmp	.+6      	; 0x2dc <__vector_1+0x1e>
	}
	else
	{
		encoder_decrementa=1;
 2d6:	81 e0       	ldi	r24, 0x01	; 1
 2d8:	80 93 e8 02 	sts	0x02E8, r24	; 0x8002e8 <encoder_decrementa>
	}
}
 2dc:	8f 91       	pop	r24
 2de:	0f 90       	pop	r0
 2e0:	0f be       	out	0x3f, r0	; 63
 2e2:	0f 90       	pop	r0
 2e4:	1f 90       	pop	r1
 2e6:	18 95       	reti

000002e8 <__vector_2>:

ISR(INT1_vect)
{
 2e8:	1f 92       	push	r1
 2ea:	0f 92       	push	r0
 2ec:	0f b6       	in	r0, 0x3f	; 63
 2ee:	0f 92       	push	r0
 2f0:	11 24       	eor	r1, r1
 2f2:	8f 93       	push	r24
		encoder_click=1;
 2f4:	81 e0       	ldi	r24, 0x01	; 1
 2f6:	80 93 db 02 	sts	0x02DB, r24	; 0x8002db <encoder_click>
}
 2fa:	8f 91       	pop	r24
 2fc:	0f 90       	pop	r0
 2fe:	0f be       	out	0x3f, r0	; 63
 300:	0f 90       	pop	r0
 302:	1f 90       	pop	r1
 304:	18 95       	reti

00000306 <__vector_16>:

ISR(TIMER0_OVF_vect )
{	// interrupção configurada para acontecer a cada 1 ms
 306:	1f 92       	push	r1
 308:	0f 92       	push	r0
 30a:	0f b6       	in	r0, 0x3f	; 63
 30c:	0f 92       	push	r0
 30e:	11 24       	eor	r1, r1
 310:	2f 93       	push	r18
 312:	8f 93       	push	r24
 314:	9f 93       	push	r25
	TCNT0=248; // reinicia a contagem em 158
 316:	88 ef       	ldi	r24, 0xF8	; 248
 318:	86 bd       	out	0x26, r24	; 38
	tempo_1s++;
 31a:	80 91 e9 02 	lds	r24, 0x02E9	; 0x8002e9 <tempo_1s>
 31e:	90 91 ea 02 	lds	r25, 0x02EA	; 0x8002ea <tempo_1s+0x1>
 322:	01 96       	adiw	r24, 0x01	; 1
 324:	90 93 ea 02 	sts	0x02EA, r25	; 0x8002ea <tempo_1s+0x1>
 328:	80 93 e9 02 	sts	0x02E9, r24	; 0x8002e9 <tempo_1s>
	if(tempo_1s>=1024)
 32c:	81 15       	cp	r24, r1
 32e:	94 40       	sbci	r25, 0x04	; 4
 330:	68 f0       	brcs	.+26     	; 0x34c <__vector_16+0x46>
	{
		y++;
 332:	80 91 e6 02 	lds	r24, 0x02E6	; 0x8002e6 <y>
 336:	90 91 e7 02 	lds	r25, 0x02E7	; 0x8002e7 <y+0x1>
 33a:	01 96       	adiw	r24, 0x01	; 1
 33c:	90 93 e7 02 	sts	0x02E7, r25	; 0x8002e7 <y+0x1>
 340:	80 93 e6 02 	sts	0x02E6, r24	; 0x8002e6 <y>
		tempo_1s=0;
 344:	10 92 ea 02 	sts	0x02EA, r1	; 0x8002ea <tempo_1s+0x1>
 348:	10 92 e9 02 	sts	0x02E9, r1	; 0x8002e9 <tempo_1s>
	}
	
	// temporização da fat32 do cartão SD
	tempo_10ms++;
 34c:	80 91 eb 02 	lds	r24, 0x02EB	; 0x8002eb <tempo_10ms>
 350:	90 91 ec 02 	lds	r25, 0x02EC	; 0x8002ec <tempo_10ms+0x1>
 354:	01 96       	adiw	r24, 0x01	; 1
	if(tempo_10ms>=102)
 356:	86 36       	cpi	r24, 0x66	; 102
 358:	91 05       	cpc	r25, r1
 35a:	28 f4       	brcc	.+10     	; 0x366 <__vector_16+0x60>
		y++;
		tempo_1s=0;
	}
	
	// temporização da fat32 do cartão SD
	tempo_10ms++;
 35c:	90 93 ec 02 	sts	0x02EC, r25	; 0x8002ec <tempo_10ms+0x1>
 360:	80 93 eb 02 	sts	0x02EB, r24	; 0x8002eb <tempo_10ms>
 364:	04 c0       	rjmp	.+8      	; 0x36e <__vector_16+0x68>
	if(tempo_10ms>=102)
	{
		tempo_10ms=0;
 366:	10 92 ec 02 	sts	0x02EC, r1	; 0x8002ec <tempo_10ms+0x1>
 36a:	10 92 eb 02 	sts	0x02EB, r1	; 0x8002eb <tempo_10ms>
		//disk_timerproc();
	}
}
 36e:	9f 91       	pop	r25
 370:	8f 91       	pop	r24
 372:	2f 91       	pop	r18
 374:	0f 90       	pop	r0
 376:	0f be       	out	0x3f, r0	; 63
 378:	0f 90       	pop	r0
 37a:	1f 90       	pop	r1
 37c:	18 95       	reti

0000037e <tela0>:

void tela0()
{
 37e:	cf 93       	push	r28
 380:	df 93       	push	r29
 382:	cd b7       	in	r28, 0x3d	; 61
 384:	de b7       	in	r29, 0x3e	; 62
 386:	29 97       	sbiw	r28, 0x09	; 9
 388:	0f b6       	in	r0, 0x3f	; 63
 38a:	f8 94       	cli
 38c:	de bf       	out	0x3e, r29	; 62
 38e:	0f be       	out	0x3f, r0	; 63
 390:	cd bf       	out	0x3d, r28	; 61
	char hora[9];
	hora[2]=(':');
 392:	8a e3       	ldi	r24, 0x3A	; 58
 394:	8b 83       	std	Y+3, r24	; 0x03
	hora[5]=(':');
 396:	8e 83       	std	Y+6, r24	; 0x06
	hora[8]=0;
 398:	19 86       	std	Y+9, r1	; 0x09
	
	RTC_GetDateTime(&rtc);		
 39a:	8f ed       	ldi	r24, 0xDF	; 223
 39c:	92 e0       	ldi	r25, 0x02	; 2
 39e:	0e 94 77 03 	call	0x6ee	; 0x6ee <RTC_GetDateTime>
	hora[0]=(((uint16_t)rtc.hour>>4)+48);
 3a2:	ef ed       	ldi	r30, 0xDF	; 223
 3a4:	f2 e0       	ldi	r31, 0x02	; 2
 3a6:	82 81       	ldd	r24, Z+2	; 0x02
 3a8:	98 2f       	mov	r25, r24
 3aa:	92 95       	swap	r25
 3ac:	9f 70       	andi	r25, 0x0F	; 15
 3ae:	90 5d       	subi	r25, 0xD0	; 208
 3b0:	99 83       	std	Y+1, r25	; 0x01
	hora[1]=(((uint16_t)rtc.hour&0x000f)+48);
 3b2:	8f 70       	andi	r24, 0x0F	; 15
 3b4:	80 5d       	subi	r24, 0xD0	; 208
 3b6:	8a 83       	std	Y+2, r24	; 0x02
	hora[3]=(((uint16_t)rtc.min>>4)+48);
 3b8:	81 81       	ldd	r24, Z+1	; 0x01
 3ba:	98 2f       	mov	r25, r24
 3bc:	92 95       	swap	r25
 3be:	9f 70       	andi	r25, 0x0F	; 15
 3c0:	90 5d       	subi	r25, 0xD0	; 208
 3c2:	9c 83       	std	Y+4, r25	; 0x04
	hora[4]=(((uint16_t)rtc.min&0x000f)+48);
 3c4:	8f 70       	andi	r24, 0x0F	; 15
 3c6:	80 5d       	subi	r24, 0xD0	; 208
 3c8:	8d 83       	std	Y+5, r24	; 0x05
	hora[6]=(((uint16_t)rtc.sec>>4)+48);
 3ca:	80 81       	ld	r24, Z
 3cc:	98 2f       	mov	r25, r24
 3ce:	92 95       	swap	r25
 3d0:	9f 70       	andi	r25, 0x0F	; 15
 3d2:	90 5d       	subi	r25, 0xD0	; 208
 3d4:	9f 83       	std	Y+7, r25	; 0x07
	hora[7]=(((uint16_t)rtc.sec&0x000f)+48);
 3d6:	8f 70       	andi	r24, 0x0F	; 15
 3d8:	80 5d       	subi	r24, 0xD0	; 208
 3da:	88 87       	std	Y+8, r24	; 0x08
//////////////////////////////////////////////////////////////////////////////////////////////////
void gotoxy(char x,char y)
{
	if(y==0)
	{
		LCD_put_inst(0x80+x);
 3dc:	80 e8       	ldi	r24, 0x80	; 128
 3de:	0e 94 89 00 	call	0x112	; 0x112 <LCD_put_inst>
		
	gotoxy(0,0);
	putstr("Tela 0 ");
 3e2:	8e ee       	ldi	r24, 0xEE	; 238
 3e4:	91 e0       	ldi	r25, 0x01	; 1
 3e6:	0e 94 fd 00 	call	0x1fa	; 0x1fa <putstr>
	putstr(hora);
 3ea:	ce 01       	movw	r24, r28
 3ec:	01 96       	adiw	r24, 0x01	; 1
 3ee:	0e 94 fd 00 	call	0x1fa	; 0x1fa <putstr>
	putstr("     ");
 3f2:	85 e0       	ldi	r24, 0x05	; 5
 3f4:	92 e0       	ldi	r25, 0x02	; 2
 3f6:	0e 94 fd 00 	call	0x1fa	; 0x1fa <putstr>
	}
	if(y==1)
	{
		LCD_put_inst(0xC0+x);
 3fa:	80 ec       	ldi	r24, 0xC0	; 192
 3fc:	0e 94 89 00 	call	0x112	; 0x112 <LCD_put_inst>
	gotoxy(0,1);
	putstr("                    ");
 400:	86 ef       	ldi	r24, 0xF6	; 246
 402:	91 e0       	ldi	r25, 0x01	; 1
 404:	0e 94 fd 00 	call	0x1fa	; 0x1fa <putstr>
	}
	if(y==2)
	{
		LCD_put_inst(0x80+LCD_columns+x);
 408:	84 e9       	ldi	r24, 0x94	; 148
 40a:	0e 94 89 00 	call	0x112	; 0x112 <LCD_put_inst>
	gotoxy(0,2);
	putstr("                    ");
 40e:	86 ef       	ldi	r24, 0xF6	; 246
 410:	91 e0       	ldi	r25, 0x01	; 1
 412:	0e 94 fd 00 	call	0x1fa	; 0x1fa <putstr>
	}
	if(y==3)
	{
		LCD_put_inst(0xC0+LCD_columns+x);
 416:	84 ed       	ldi	r24, 0xD4	; 212
 418:	0e 94 89 00 	call	0x112	; 0x112 <LCD_put_inst>
	gotoxy(0,3);
	putstr("                   0");
 41c:	8b e0       	ldi	r24, 0x0B	; 11
 41e:	92 e0       	ldi	r25, 0x02	; 2
 420:	0e 94 fd 00 	call	0x1fa	; 0x1fa <putstr>

	if(encoder_incrementa!=0)
 424:	80 91 da 02 	lds	r24, 0x02DA	; 0x8002da <__data_end>
 428:	88 23       	and	r24, r24
 42a:	39 f0       	breq	.+14     	; 0x43a <__LOCK_REGION_LENGTH__+0x3a>
	{
		encoder_incrementa=0;
 42c:	10 92 da 02 	sts	0x02DA, r1	; 0x8002da <__data_end>
		tela_ativa=1;
 430:	81 e0       	ldi	r24, 0x01	; 1
 432:	80 93 01 03 	sts	0x0301, r24	; 0x800301 <tela_ativa>
		tela_anterior=0;
 436:	10 92 dc 02 	sts	0x02DC, r1	; 0x8002dc <tela_anterior>
	}
	if(encoder_decrementa!=0)
 43a:	80 91 e8 02 	lds	r24, 0x02E8	; 0x8002e8 <encoder_decrementa>
 43e:	81 11       	cpse	r24, r1
	{
		encoder_decrementa=0;
 440:	10 92 e8 02 	sts	0x02E8, r1	; 0x8002e8 <encoder_decrementa>
	}
	if(encoder_click!=0)
 444:	80 91 db 02 	lds	r24, 0x02DB	; 0x8002db <encoder_click>
 448:	81 11       	cpse	r24, r1
	{
		encoder_click=0;
 44a:	10 92 db 02 	sts	0x02DB, r1	; 0x8002db <encoder_click>
	}
}
 44e:	29 96       	adiw	r28, 0x09	; 9
 450:	0f b6       	in	r0, 0x3f	; 63
 452:	f8 94       	cli
 454:	de bf       	out	0x3e, r29	; 62
 456:	0f be       	out	0x3f, r0	; 63
 458:	cd bf       	out	0x3d, r28	; 61
 45a:	df 91       	pop	r29
 45c:	cf 91       	pop	r28
 45e:	08 95       	ret

00000460 <tela1>:
//////////////////////////////////////////////////////////////////////////////////////////////////
void gotoxy(char x,char y)
{
	if(y==0)
	{
		LCD_put_inst(0x80+x);
 460:	80 e8       	ldi	r24, 0x80	; 128
 462:	0e 94 89 00 	call	0x112	; 0x112 <LCD_put_inst>
	if(tela_ativa!=tela_anterior) //entrando nesta tela
	{
		
	}
	gotoxy(0,0);
	putstr("Ajuste de Parametros");
 466:	80 e2       	ldi	r24, 0x20	; 32
 468:	92 e0       	ldi	r25, 0x02	; 2
 46a:	0e 94 fd 00 	call	0x1fa	; 0x1fa <putstr>
	}
	if(y==1)
	{
		LCD_put_inst(0xC0+x);
 46e:	80 ec       	ldi	r24, 0xC0	; 192
 470:	0e 94 89 00 	call	0x112	; 0x112 <LCD_put_inst>
	gotoxy(0,1);
	putstr(texto_parametros[0]);
 474:	85 e1       	ldi	r24, 0x15	; 21
 476:	91 e0       	ldi	r25, 0x01	; 1
 478:	0e 94 fd 00 	call	0x1fa	; 0x1fa <putstr>
	}
	if(y==2)
	{
		LCD_put_inst(0x80+LCD_columns+x);
 47c:	84 e9       	ldi	r24, 0x94	; 148
 47e:	0e 94 89 00 	call	0x112	; 0x112 <LCD_put_inst>
	gotoxy(0,2);
	putstr(espacos);
 482:	80 e0       	ldi	r24, 0x00	; 0
 484:	91 e0       	ldi	r25, 0x01	; 1
 486:	0e 94 fd 00 	call	0x1fa	; 0x1fa <putstr>
	}
	if(y==3)
	{
		LCD_put_inst(0xC0+LCD_columns+x);
 48a:	84 ed       	ldi	r24, 0xD4	; 212
 48c:	0e 94 89 00 	call	0x112	; 0x112 <LCD_put_inst>
	gotoxy(0,3);
	putstr("                   1");
 490:	85 e3       	ldi	r24, 0x35	; 53
 492:	92 e0       	ldi	r25, 0x02	; 2
 494:	0e 94 fd 00 	call	0x1fa	; 0x1fa <putstr>
	if(encoder_incrementa!=0)
 498:	80 91 da 02 	lds	r24, 0x02DA	; 0x8002da <__data_end>
 49c:	88 23       	and	r24, r24
 49e:	41 f0       	breq	.+16     	; 0x4b0 <tela1+0x50>
	{
		encoder_incrementa=0;
 4a0:	10 92 da 02 	sts	0x02DA, r1	; 0x8002da <__data_end>
		tela_ativa=2;
 4a4:	82 e0       	ldi	r24, 0x02	; 2
 4a6:	80 93 01 03 	sts	0x0301, r24	; 0x800301 <tela_ativa>
		tela_anterior=1;
 4aa:	81 e0       	ldi	r24, 0x01	; 1
 4ac:	80 93 dc 02 	sts	0x02DC, r24	; 0x8002dc <tela_anterior>
	}
	if(encoder_decrementa!=0)
 4b0:	80 91 e8 02 	lds	r24, 0x02E8	; 0x8002e8 <encoder_decrementa>
 4b4:	88 23       	and	r24, r24
 4b6:	39 f0       	breq	.+14     	; 0x4c6 <tela1+0x66>
	{
		encoder_decrementa=0;
 4b8:	10 92 e8 02 	sts	0x02E8, r1	; 0x8002e8 <encoder_decrementa>
		tela_ativa=0;
 4bc:	10 92 01 03 	sts	0x0301, r1	; 0x800301 <tela_ativa>
		tela_anterior=1;
 4c0:	81 e0       	ldi	r24, 0x01	; 1
 4c2:	80 93 dc 02 	sts	0x02DC, r24	; 0x8002dc <tela_anterior>
	}
	if(encoder_click!=0)
 4c6:	80 91 db 02 	lds	r24, 0x02DB	; 0x8002db <encoder_click>
 4ca:	81 11       	cpse	r24, r1
	{
		encoder_click=0;
 4cc:	10 92 db 02 	sts	0x02DB, r1	; 0x8002db <encoder_click>
 4d0:	08 95       	ret

000004d2 <tela2>:
	}
}

void tela2()
{
 4d2:	cf 93       	push	r28
 4d4:	df 93       	push	r29
	if(tela_ativa!=tela_anterior) //entrando nesta tela
	{
		
	}
	RTC_GetDateTime(&rtc);
 4d6:	8f ed       	ldi	r24, 0xDF	; 223
 4d8:	92 e0       	ldi	r25, 0x02	; 2
 4da:	0e 94 77 03 	call	0x6ee	; 0x6ee <RTC_GetDateTime>
//////////////////////////////////////////////////////////////////////////////////////////////////
void gotoxy(char x,char y)
{
	if(y==0)
	{
		LCD_put_inst(0x80+x);
 4de:	80 e8       	ldi	r24, 0x80	; 128
 4e0:	0e 94 89 00 	call	0x112	; 0x112 <LCD_put_inst>
	gotoxy(0,0);
	putstr("      tela 2       ");
 4e4:	8a e4       	ldi	r24, 0x4A	; 74
 4e6:	92 e0       	ldi	r25, 0x02	; 2
 4e8:	0e 94 fd 00 	call	0x1fa	; 0x1fa <putstr>
	}
	if(y==1)
	{
		LCD_put_inst(0xC0+x);
 4ec:	80 ec       	ldi	r24, 0xC0	; 192
 4ee:	0e 94 89 00 	call	0x112	; 0x112 <LCD_put_inst>
	gotoxy(0,1);
	putstr("    Minuto atual    ");
 4f2:	8e e5       	ldi	r24, 0x5E	; 94
 4f4:	92 e0       	ldi	r25, 0x02	; 2
 4f6:	0e 94 fd 00 	call	0x1fa	; 0x1fa <putstr>
	}
	if(y==2)
	{
		LCD_put_inst(0x80+LCD_columns+x);
 4fa:	84 e9       	ldi	r24, 0x94	; 148
 4fc:	0e 94 89 00 	call	0x112	; 0x112 <LCD_put_inst>
	gotoxy(0,2);
	putstr("         ");
 500:	81 e0       	ldi	r24, 0x01	; 1
 502:	92 e0       	ldi	r25, 0x02	; 2
 504:	0e 94 fd 00 	call	0x1fa	; 0x1fa <putstr>
	LCD_putchar((((uint16_t)rtc.min>>4)+48));
 508:	cf ed       	ldi	r28, 0xDF	; 223
 50a:	d2 e0       	ldi	r29, 0x02	; 2
 50c:	89 81       	ldd	r24, Y+1	; 0x01
 50e:	82 95       	swap	r24
 510:	8f 70       	andi	r24, 0x0F	; 15
 512:	80 5d       	subi	r24, 0xD0	; 208
 514:	0e 94 c3 00 	call	0x186	; 0x186 <LCD_putchar>
	LCD_putchar(((uint16_t)rtc.min&0x000f)+48);
 518:	89 81       	ldd	r24, Y+1	; 0x01
 51a:	8f 70       	andi	r24, 0x0F	; 15
 51c:	80 5d       	subi	r24, 0xD0	; 208
 51e:	0e 94 c3 00 	call	0x186	; 0x186 <LCD_putchar>
	putstr("         ");
 522:	81 e0       	ldi	r24, 0x01	; 1
 524:	92 e0       	ldi	r25, 0x02	; 2
 526:	0e 94 fd 00 	call	0x1fa	; 0x1fa <putstr>
	}
	if(y==3)
	{
		LCD_put_inst(0xC0+LCD_columns+x);
 52a:	84 ed       	ldi	r24, 0xD4	; 212
 52c:	0e 94 89 00 	call	0x112	; 0x112 <LCD_put_inst>
	gotoxy(0,3);
	putstr("                   2");
 530:	83 e7       	ldi	r24, 0x73	; 115
 532:	92 e0       	ldi	r25, 0x02	; 2
 534:	0e 94 fd 00 	call	0x1fa	; 0x1fa <putstr>
	if(encoder_incrementa!=0)
 538:	80 91 da 02 	lds	r24, 0x02DA	; 0x8002da <__data_end>
 53c:	88 23       	and	r24, r24
 53e:	41 f0       	breq	.+16     	; 0x550 <tela2+0x7e>
	{
		encoder_incrementa=0;
 540:	10 92 da 02 	sts	0x02DA, r1	; 0x8002da <__data_end>
		tela_ativa=3;
 544:	83 e0       	ldi	r24, 0x03	; 3
 546:	80 93 01 03 	sts	0x0301, r24	; 0x800301 <tela_ativa>
		tela_anterior=2;
 54a:	82 e0       	ldi	r24, 0x02	; 2
 54c:	80 93 dc 02 	sts	0x02DC, r24	; 0x8002dc <tela_anterior>
	}
	if(encoder_decrementa!=0)
 550:	80 91 e8 02 	lds	r24, 0x02E8	; 0x8002e8 <encoder_decrementa>
 554:	88 23       	and	r24, r24
 556:	41 f0       	breq	.+16     	; 0x568 <tela2+0x96>
	{
		encoder_decrementa=0;
 558:	10 92 e8 02 	sts	0x02E8, r1	; 0x8002e8 <encoder_decrementa>
		tela_ativa=1;
 55c:	81 e0       	ldi	r24, 0x01	; 1
 55e:	80 93 01 03 	sts	0x0301, r24	; 0x800301 <tela_ativa>
		tela_anterior=2;
 562:	82 e0       	ldi	r24, 0x02	; 2
 564:	80 93 dc 02 	sts	0x02DC, r24	; 0x8002dc <tela_anterior>
	}
	if(encoder_click!=0)
 568:	80 91 db 02 	lds	r24, 0x02DB	; 0x8002db <encoder_click>
 56c:	81 11       	cpse	r24, r1
	{
		encoder_click=0;
 56e:	10 92 db 02 	sts	0x02DB, r1	; 0x8002db <encoder_click>
	}
}
 572:	df 91       	pop	r29
 574:	cf 91       	pop	r28
 576:	08 95       	ret

00000578 <tela3>:

void tela3()
{
 578:	cf 93       	push	r28
 57a:	df 93       	push	r29
	if(tela_ativa!=tela_anterior) //entrando nesta tela
	{
		
	}
	RTC_GetDateTime(&rtc);
 57c:	8f ed       	ldi	r24, 0xDF	; 223
 57e:	92 e0       	ldi	r25, 0x02	; 2
 580:	0e 94 77 03 	call	0x6ee	; 0x6ee <RTC_GetDateTime>
//////////////////////////////////////////////////////////////////////////////////////////////////
void gotoxy(char x,char y)
{
	if(y==0)
	{
		LCD_put_inst(0x80+x);
 584:	80 e8       	ldi	r24, 0x80	; 128
 586:	0e 94 89 00 	call	0x112	; 0x112 <LCD_put_inst>
	gotoxy(0,0);
	putstr("      tela 3       ");
 58a:	88 e8       	ldi	r24, 0x88	; 136
 58c:	92 e0       	ldi	r25, 0x02	; 2
 58e:	0e 94 fd 00 	call	0x1fa	; 0x1fa <putstr>
	}
	if(y==1)
	{
		LCD_put_inst(0xC0+x);
 592:	80 ec       	ldi	r24, 0xC0	; 192
 594:	0e 94 89 00 	call	0x112	; 0x112 <LCD_put_inst>
	gotoxy(0,1);
	putstr("   Segundo atual    ");
 598:	8c e9       	ldi	r24, 0x9C	; 156
 59a:	92 e0       	ldi	r25, 0x02	; 2
 59c:	0e 94 fd 00 	call	0x1fa	; 0x1fa <putstr>
	}
	if(y==2)
	{
		LCD_put_inst(0x80+LCD_columns+x);
 5a0:	84 e9       	ldi	r24, 0x94	; 148
 5a2:	0e 94 89 00 	call	0x112	; 0x112 <LCD_put_inst>
	gotoxy(0,2);
	putstr("         ");
 5a6:	81 e0       	ldi	r24, 0x01	; 1
 5a8:	92 e0       	ldi	r25, 0x02	; 2
 5aa:	0e 94 fd 00 	call	0x1fa	; 0x1fa <putstr>
	LCD_putchar((((uint16_t)rtc.sec>>4)+48));
 5ae:	cf ed       	ldi	r28, 0xDF	; 223
 5b0:	d2 e0       	ldi	r29, 0x02	; 2
 5b2:	88 81       	ld	r24, Y
 5b4:	82 95       	swap	r24
 5b6:	8f 70       	andi	r24, 0x0F	; 15
 5b8:	80 5d       	subi	r24, 0xD0	; 208
 5ba:	0e 94 c3 00 	call	0x186	; 0x186 <LCD_putchar>
	LCD_putchar(((uint16_t)rtc.sec&0x000f)+48);
 5be:	88 81       	ld	r24, Y
 5c0:	8f 70       	andi	r24, 0x0F	; 15
 5c2:	80 5d       	subi	r24, 0xD0	; 208
 5c4:	0e 94 c3 00 	call	0x186	; 0x186 <LCD_putchar>
	putstr("         ");
 5c8:	81 e0       	ldi	r24, 0x01	; 1
 5ca:	92 e0       	ldi	r25, 0x02	; 2
 5cc:	0e 94 fd 00 	call	0x1fa	; 0x1fa <putstr>
	}
	if(y==3)
	{
		LCD_put_inst(0xC0+LCD_columns+x);
 5d0:	84 ed       	ldi	r24, 0xD4	; 212
 5d2:	0e 94 89 00 	call	0x112	; 0x112 <LCD_put_inst>
	gotoxy(0,3);
	putstr("                   3");
 5d6:	81 eb       	ldi	r24, 0xB1	; 177
 5d8:	92 e0       	ldi	r25, 0x02	; 2
 5da:	0e 94 fd 00 	call	0x1fa	; 0x1fa <putstr>
	if(encoder_incrementa!=0)
 5de:	80 91 da 02 	lds	r24, 0x02DA	; 0x8002da <__data_end>
 5e2:	88 23       	and	r24, r24
 5e4:	29 f0       	breq	.+10     	; 0x5f0 <tela3+0x78>
	{
		encoder_incrementa=0;
 5e6:	10 92 da 02 	sts	0x02DA, r1	; 0x8002da <__data_end>
		//tela_ativa=2;
		tela_anterior=3;
 5ea:	83 e0       	ldi	r24, 0x03	; 3
 5ec:	80 93 dc 02 	sts	0x02DC, r24	; 0x8002dc <tela_anterior>
	}
	if(encoder_decrementa!=0)
 5f0:	80 91 e8 02 	lds	r24, 0x02E8	; 0x8002e8 <encoder_decrementa>
 5f4:	88 23       	and	r24, r24
 5f6:	41 f0       	breq	.+16     	; 0x608 <tela3+0x90>
	{
		encoder_decrementa=0;
 5f8:	10 92 e8 02 	sts	0x02E8, r1	; 0x8002e8 <encoder_decrementa>
		tela_ativa=2;
 5fc:	82 e0       	ldi	r24, 0x02	; 2
 5fe:	80 93 01 03 	sts	0x0301, r24	; 0x800301 <tela_ativa>
		tela_anterior=3;
 602:	83 e0       	ldi	r24, 0x03	; 3
 604:	80 93 dc 02 	sts	0x02DC, r24	; 0x8002dc <tela_anterior>
	}
	if(encoder_click!=0)
 608:	80 91 db 02 	lds	r24, 0x02DB	; 0x8002db <encoder_click>
 60c:	81 11       	cpse	r24, r1
	{
		encoder_click=0;
 60e:	10 92 db 02 	sts	0x02DB, r1	; 0x8002db <encoder_click>
	}
}
 612:	df 91       	pop	r29
 614:	cf 91       	pop	r28
 616:	08 95       	ret

00000618 <atualiza_tela>:

void atualiza_tela()
{
	switch (tela_ativa)
 618:	80 91 01 03 	lds	r24, 0x0301	; 0x800301 <tela_ativa>
 61c:	81 30       	cpi	r24, 0x01	; 1
 61e:	49 f0       	breq	.+18     	; 0x632 <atualiza_tela+0x1a>
 620:	28 f0       	brcs	.+10     	; 0x62c <atualiza_tela+0x14>
 622:	82 30       	cpi	r24, 0x02	; 2
 624:	49 f0       	breq	.+18     	; 0x638 <atualiza_tela+0x20>
 626:	83 30       	cpi	r24, 0x03	; 3
 628:	51 f0       	breq	.+20     	; 0x63e <atualiza_tela+0x26>
 62a:	0c c0       	rjmp	.+24     	; 0x644 <atualiza_tela+0x2c>
	{
		case 0:
		tela0();
 62c:	0e 94 bf 01 	call	0x37e	; 0x37e <tela0>
		break;
 630:	08 95       	ret

		case 1:
		tela1();
 632:	0e 94 30 02 	call	0x460	; 0x460 <tela1>
		break;
 636:	08 95       	ret
		
		case 2:
		tela2();
 638:	0e 94 69 02 	call	0x4d2	; 0x4d2 <tela2>
		break;
 63c:	08 95       	ret
		
		case 3:
		tela3();
 63e:	0e 94 bc 02 	call	0x578	; 0x578 <tela3>
		break;
 642:	08 95       	ret

		default:
		tela0();
 644:	0e 94 bf 01 	call	0x37e	; 0x37e <tela0>
 648:	08 95       	ret

0000064a <main>:

int main(void)
{

	// iniciaçiza variáveis globais
	encoder_incrementa=0;
 64a:	10 92 da 02 	sts	0x02DA, r1	; 0x8002da <__data_end>
	encoder_decrementa=0;
 64e:	10 92 e8 02 	sts	0x02E8, r1	; 0x8002e8 <encoder_decrementa>
	encoder_click=0;
 652:	10 92 db 02 	sts	0x02DB, r1	; 0x8002db <encoder_click>
	
	tela_ativa=0;
 656:	10 92 01 03 	sts	0x0301, r1	; 0x800301 <tela_ativa>
	tela_anterior=0;
 65a:	10 92 dc 02 	sts	0x02DC, r1	; 0x8002dc <tela_anterior>
	
	y=0;	
 65e:	10 92 e7 02 	sts	0x02E7, r1	; 0x8002e7 <y+0x1>
 662:	10 92 e6 02 	sts	0x02E6, r1	; 0x8002e6 <y>
	contador=10;
 666:	8a e0       	ldi	r24, 0x0A	; 10
 668:	90 e0       	ldi	r25, 0x00	; 0
 66a:	90 93 de 02 	sts	0x02DE, r25	; 0x8002de <contador+0x1>
 66e:	80 93 dd 02 	sts	0x02DD, r24	; 0x8002dd <contador>
	
	LCD_init(); // inicializa LCD 20x4 (TextLCD.h)
 672:	0e 94 17 01 	call	0x22e	; 0x22e <LCD_init>
//////////////////////////////////////////////////////////////////////////////////////////////////
void gotoxy(char x,char y)
{
	if(y==0)
	{
		LCD_put_inst(0x80+x);
 676:	80 e8       	ldi	r24, 0x80	; 128
 678:	0e 94 89 00 	call	0x112	; 0x112 <LCD_put_inst>
	
	gotoxy(0,0);
	putstr("  Inicializando...");
 67c:	86 ec       	ldi	r24, 0xC6	; 198
 67e:	92 e0       	ldi	r25, 0x02	; 2
 680:	0e 94 fd 00 	call	0x1fa	; 0x1fa <putstr>
	
	DDRC=0b00110000;
 684:	80 e3       	ldi	r24, 0x30	; 48
 686:	87 b9       	out	0x07, r24	; 7
	
	EICRA = 0b00001111;
 688:	8f e0       	ldi	r24, 0x0F	; 15
 68a:	80 93 69 00 	sts	0x0069, r24	; 0x800069 <__DATA_REGION_ORIGIN__+0x9>
	EIMSK = 0b00000011;
 68e:	83 e0       	ldi	r24, 0x03	; 3
 690:	8d bb       	out	0x1d, r24	; 29
	
	// configura o timer 0 para aproximadamente 1 ms (1/1024 s)
	TCCR0B=0b00000101; // Habilita o timer 0 com prescaler 1024
 692:	85 e0       	ldi	r24, 0x05	; 5
 694:	85 bd       	out	0x25, r24	; 37
	TCNT0=248; // inicia a contagem em 158
 696:	88 ef       	ldi	r24, 0xF8	; 248
 698:	86 bd       	out	0x26, r24	; 38
	TIMSK0 |=1; // Habilita a interrupção do timer 0
 69a:	ee e6       	ldi	r30, 0x6E	; 110
 69c:	f0 e0       	ldi	r31, 0x00	; 0
 69e:	80 81       	ld	r24, Z
 6a0:	81 60       	ori	r24, 0x01	; 1
 6a2:	80 83       	st	Z, r24
	//////////////
	
	sei(); // ativa todas as interrupções
 6a4:	78 94       	sei
	
	tempo_1s=0;
 6a6:	10 92 ea 02 	sts	0x02EA, r1	; 0x8002ea <tempo_1s+0x1>
 6aa:	10 92 e9 02 	sts	0x02E9, r1	; 0x8002e9 <tempo_1s>
	tempo_10ms=0;
 6ae:	10 92 ec 02 	sts	0x02EC, r1	; 0x8002ec <tempo_10ms+0x1>
 6b2:	10 92 eb 02 	sts	0x02EB, r1	; 0x8002eb <tempo_10ms>
	//inicializa o RTC
	RTC_Init();
 6b6:	0e 94 67 03 	call	0x6ce	; 0x6ce <RTC_Init>
 6ba:	80 e8       	ldi	r24, 0x80	; 128
 6bc:	0e 94 89 00 	call	0x112	; 0x112 <LCD_put_inst>
	f_close(&logFile);
	f_mount(0,0);
	// fim testa sd
	*/
	gotoxy(0,0);
	putstr("                    ");
 6c0:	86 ef       	ldi	r24, 0xF6	; 246
 6c2:	91 e0       	ldi	r25, 0x01	; 1
 6c4:	0e 94 fd 00 	call	0x1fa	; 0x1fa <putstr>
	while(1)
	{
		atualiza_tela();
 6c8:	0e 94 0c 03 	call	0x618	; 0x618 <atualiza_tela>
 6cc:	fd cf       	rjmp	.-6      	; 0x6c8 <main+0x7e>

000006ce <RTC_Init>:
    I2C_Write(rtc->date);                    // Write date on RAM address 04H
    I2C_Write(rtc->month);                    // Write month on RAM address 05H
    I2C_Write(rtc->year);                    // Write year on RAM address 06h

    I2C_Stop();                              // Stop I2C communication after Setting the Date
}
 6ce:	0e 94 53 00 	call	0xa6	; 0xa6 <I2C_Init>
 6d2:	0e 94 5c 00 	call	0xb8	; 0xb8 <I2C_Start>
 6d6:	80 ed       	ldi	r24, 0xD0	; 208
 6d8:	0e 94 6f 00 	call	0xde	; 0xde <I2C_Write>
 6dc:	87 e0       	ldi	r24, 0x07	; 7
 6de:	0e 94 6f 00 	call	0xde	; 0xde <I2C_Write>
 6e2:	80 e0       	ldi	r24, 0x00	; 0
 6e4:	0e 94 6f 00 	call	0xde	; 0xde <I2C_Write>
 6e8:	0e 94 65 00 	call	0xca	; 0xca <I2C_Stop>
 6ec:	08 95       	ret

000006ee <RTC_GetDateTime>:
    Note: The date and time read from Ds1307 will be of BCD format, 
          like 0x12,0x39,0x26 for 12hr,39min and 26sec.    
               0x15,0x08,0x47 for 15th day,8th month and 47th year.              
***************************************************************************************************/
void RTC_GetDateTime(rtc_t *rtc)
{
 6ee:	cf 93       	push	r28
 6f0:	df 93       	push	r29
 6f2:	ec 01       	movw	r28, r24
    I2C_Start();                            // Start I2C communication
 6f4:	0e 94 5c 00 	call	0xb8	; 0xb8 <I2C_Start>

    I2C_Write(C_Ds1307WriteMode_U8);        // connect to DS1307 by sending its ID on I2c Bus
 6f8:	80 ed       	ldi	r24, 0xD0	; 208
 6fa:	0e 94 6f 00 	call	0xde	; 0xde <I2C_Write>
    I2C_Write(C_Ds1307SecondRegAddress_U8); // Request Sec RAM address at 00H
 6fe:	80 e0       	ldi	r24, 0x00	; 0
 700:	0e 94 6f 00 	call	0xde	; 0xde <I2C_Write>

    I2C_Stop();                                // Stop I2C communication after selecting Sec Register
 704:	0e 94 65 00 	call	0xca	; 0xca <I2C_Stop>

    I2C_Start();                            // Start I2C communication
 708:	0e 94 5c 00 	call	0xb8	; 0xb8 <I2C_Start>
    I2C_Write(C_Ds1307ReadMode_U8);            // connect to DS1307(Read mode) by sending its ID
 70c:	81 ed       	ldi	r24, 0xD1	; 209
 70e:	0e 94 6f 00 	call	0xde	; 0xde <I2C_Write>

    rtc->sec = I2C_Read(1);                // read second and return Positive ACK
 712:	81 e0       	ldi	r24, 0x01	; 1
 714:	0e 94 7a 00 	call	0xf4	; 0xf4 <I2C_Read>
 718:	88 83       	st	Y, r24
    rtc->min = I2C_Read(1);                 // read minute and return Positive ACK
 71a:	81 e0       	ldi	r24, 0x01	; 1
 71c:	0e 94 7a 00 	call	0xf4	; 0xf4 <I2C_Read>
 720:	89 83       	std	Y+1, r24	; 0x01
    rtc->hour= I2C_Read(1);               // read hour and return Negative/No ACK
 722:	81 e0       	ldi	r24, 0x01	; 1
 724:	0e 94 7a 00 	call	0xf4	; 0xf4 <I2C_Read>
 728:	8a 83       	std	Y+2, r24	; 0x02
    rtc->weekDay = I2C_Read(1);           // read weekDay and return Positive ACK
 72a:	81 e0       	ldi	r24, 0x01	; 1
 72c:	0e 94 7a 00 	call	0xf4	; 0xf4 <I2C_Read>
 730:	8b 83       	std	Y+3, r24	; 0x03
    rtc->date= I2C_Read(1);              // read Date and return Positive ACK
 732:	81 e0       	ldi	r24, 0x01	; 1
 734:	0e 94 7a 00 	call	0xf4	; 0xf4 <I2C_Read>
 738:	8c 83       	std	Y+4, r24	; 0x04
    rtc->month=I2C_Read(1);            // read Month and return Positive ACK
 73a:	81 e0       	ldi	r24, 0x01	; 1
 73c:	0e 94 7a 00 	call	0xf4	; 0xf4 <I2C_Read>
 740:	8d 83       	std	Y+5, r24	; 0x05
    rtc->year =I2C_Read(0);             // read Year and return Negative/No ACK
 742:	80 e0       	ldi	r24, 0x00	; 0
 744:	0e 94 7a 00 	call	0xf4	; 0xf4 <I2C_Read>
 748:	8e 83       	std	Y+6, r24	; 0x06

    I2C_Stop();                              // Stop I2C communication after reading the Date
 74a:	0e 94 65 00 	call	0xca	; 0xca <I2C_Stop>
}
 74e:	df 91       	pop	r29
 750:	cf 91       	pop	r28
 752:	08 95       	ret

00000754 <_exit>:
 754:	f8 94       	cli

00000756 <__stop_program>:
 756:	ff cf       	rjmp	.-2      	; 0x756 <__stop_program>
